; Function Attrs: mustprogress uwtable
define hidden void @_ZNK4cvc58internal7Integer24euclidianDivideRemainderERKS1_(ptr dead_on_unwind noalias writable sret(%"class.cvc5::internal::Integer") align 8 %0, ptr noundef nonnull align 8 dereferenceable(16) %1, ptr noundef nonnull align 8 dereferenceable(16) %2) local_unnamed_addr #0 align 2 personality ptr @__gxx_personality_v0 {
  %4 = alloca %"class.cvc5::internal::Integer", align 8
  call void @llvm.lifetime.start.p0(i64 16, ptr nonnull %4) #16
  call void @__gmpz_init(ptr noundef nonnull align 8 dereferenceable(16) %4) #16
  call void @__gmpz_init(ptr noundef nonnull align 8 dereferenceable(16) %0) #16
  invoke void @_ZN4cvc58internal7Integer11euclidianQRERS1_S2_RKS1_S4_(ptr noundef nonnull align 8 dereferenceable(16) %4, ptr noundef nonnull align 8 dereferenceable(16) %0, ptr noundef nonnull align 8 dereferenceable(16) %1, ptr noundef nonnull align 8 dereferenceable(16) %2)
          to label %10 unwind label %5

5:                                                ; preds = %3
  %6 = landingpad { ptr, i32 }
          cleanup
  invoke void @__gmpz_clear(ptr noundef nonnull align 8 dereferenceable(16) %0)
          to label %_ZN4cvc58internal7IntegerD2Ev.exit unwind label %7

7:                                                ; preds = %5
  %8 = landingpad { ptr, i32 }
          catch ptr null
  %9 = extractvalue { ptr, i32 } %8, 0
  call void @__clang_call_terminate(ptr %9) #19
  unreachable

10:                                               ; preds = %3
  invoke void @__gmpz_clear(ptr noundef nonnull align 8 dereferenceable(16) %4)
          to label %_ZN4cvc58internal7IntegerD2Ev.exit6 unwind label %11

11:                                               ; preds = %10
  %12 = landingpad { ptr, i32 }
          catch ptr null
  %13 = extractvalue { ptr, i32 } %12, 0
  call void @__clang_call_terminate(ptr %13) #19
  unreachable

_ZN4cvc58internal7IntegerD2Ev.exit6:              ; preds = %10
  call void @llvm.lifetime.end.p0(i64 16, ptr nonnull %4) #16
  ret void

_ZN4cvc58internal7IntegerD2Ev.exit:               ; preds = %5
  invoke void @__gmpz_clear(ptr noundef nonnull align 8 dereferenceable(16) %4)
          to label %_ZN4cvc58internal7IntegerD2Ev.exit7 unwind label %14

14:                                               ; preds = %_ZN4cvc58internal7IntegerD2Ev.exit
  %15 = landingpad { ptr, i32 }
          catch ptr null
  %16 = extractvalue { ptr, i32 } %15, 0
  call void @__clang_call_terminate(ptr %16) #19
  unreachable

_ZN4cvc58internal7IntegerD2Ev.exit7:              ; preds = %_ZN4cvc58internal7IntegerD2Ev.exit
  call void @llvm.lifetime.end.p0(i64 16, ptr nonnull %4) #16
  resume { ptr, i32 } %6
}